; Function Attrs: mustprogress uwtable
define void @_ZN3nix10ServeProto21BasicClientConnection25putBuildDerivationRequestERKNS_5StoreERKNS_9StorePathERKNS_15BasicDerivationERKNS0_12BuildOptionsE(ptr noundef nonnull align 8 dereferenceable(164) %0, ptr noundef nonnull align 8 dereferenceable(264) %1, ptr noundef nonnull align 8 dereferenceable(32) %2, ptr noundef nonnull align 8 dereferenceable(272) %3, ptr noundef nonnull align 8 dereferenceable(34) %4) local_unnamed_addr #4 align 2 personality ptr @__gxx_personality_v0 {
  %6 = alloca [8 x i8], align 1
  %7 = alloca %"class.std::__cxx11::basic_string", align 8
  %8 = load ptr, ptr %0, align 8
  %9 = getelementptr i8, ptr %8, i64 -48
  %10 = load i64, ptr %9, align 8
  %11 = getelementptr inbounds i8, ptr %0, i64 %10
  call void @llvm.lifetime.start.p0(i64 8, ptr nonnull %6)
  store i8 8, ptr %6, align 1
  %12 = getelementptr inbounds i8, ptr %6, i64 1
  call void @llvm.memset.p0.i64(ptr noundef nonnull align 1 dereferenceable(7) %12, i8 0, i64 7, i1 false)
  %13 = load ptr, ptr %11, align 8
  %14 = getelementptr inbounds i8, ptr %13, i64 16
  %15 = load ptr, ptr %14, align 8
  call void %15(ptr noundef nonnull align 8 dereferenceable(8) %11, i64 8, ptr nonnull %6)
  call void @llvm.lifetime.end.p0(i64 8, ptr nonnull %6)
  %16 = load ptr, ptr %1, align 8
  %17 = getelementptr i8, ptr %16, i64 -24
  %18 = load i64, ptr %17, align 8
  %19 = getelementptr inbounds i8, ptr %1, i64 %18
  call void @_ZNK3nix14StoreDirConfig14printStorePathB5cxx11ERKNS_9StorePathE(ptr dead_on_unwind nonnull writable sret(%"class.std::__cxx11::basic_string") align 8 %7, ptr noundef nonnull align 8 dereferenceable(344) %19, ptr noundef nonnull align 8 dereferenceable(32) %2)
  %20 = load ptr, ptr %7, align 8
  %21 = getelementptr inbounds i8, ptr %7, i64 8
  %22 = load i64, ptr %21, align 8
  %23 = invoke noundef nonnull align 8 dereferenceable(8) ptr @_ZN3nixlsERNS_4SinkESt17basic_string_viewIcSt11char_traitsIcEE(ptr noundef nonnull align 8 dereferenceable(8) %11, i64 %22, ptr %20)
          to label %24 unwind label %48

24:                                               ; preds = %5
  %25 = load ptr, ptr %7, align 8
  %26 = getelementptr inbounds i8, ptr %7, i64 16
  %27 = icmp eq ptr %25, %26
  br i1 %27, label %_ZNKSt7__cxx1112basic_stringIcSt11char_traitsIcESaIcEE11_M_is_localEv.exit.thread.i.i, label %_ZNKSt7__cxx1112basic_stringIcSt11char_traitsIcESaIcEE11_M_is_localEv.exit.i.i

_ZNKSt7__cxx1112basic_stringIcSt11char_traitsIcESaIcEE11_M_is_localEv.exit.thread.i.i: ; preds = %24
  %28 = load i64, ptr %21, align 8
  %29 = icmp ult i64 %28, 16
  call void @llvm.assume(i1 %29)
  br label %_ZNSt7__cxx1112basic_stringIcSt11char_traitsIcESaIcEED2Ev.exit

_ZNKSt7__cxx1112basic_stringIcSt11char_traitsIcESaIcEE11_M_is_localEv.exit.i.i: ; preds = %24
  call void @_ZdlPv(ptr noundef %25) #24
  br label %_ZNSt7__cxx1112basic_stringIcSt11char_traitsIcESaIcEED2Ev.exit

_ZNSt7__cxx1112basic_stringIcSt11char_traitsIcESaIcEED2Ev.exit: ; preds = %_ZNKSt7__cxx1112basic_stringIcSt11char_traitsIcESaIcEE11_M_is_localEv.exit.thread.i.i, %_ZNKSt7__cxx1112basic_stringIcSt11char_traitsIcESaIcEE11_M_is_localEv.exit.i.i
  call void @_ZNSaIcED2Ev(ptr noundef nonnull align 1 dereferenceable(1) %7) #21
  %30 = load ptr, ptr %0, align 8
  %31 = getelementptr i8, ptr %30, i64 -48
  %32 = load i64, ptr %31, align 8
  %33 = getelementptr inbounds i8, ptr %0, i64 %32
  %34 = load ptr, ptr %1, align 8
  %35 = getelementptr i8, ptr %34, i64 -24
  %36 = load i64, ptr %35, align 8
  %37 = getelementptr inbounds i8, ptr %1, i64 %36
  call void @_ZN3nix15writeDerivationERNS_4SinkERKNS_14StoreDirConfigERKNS_15BasicDerivationE(ptr noundef nonnull align 8 dereferenceable(8) %33, ptr noundef nonnull align 8 dereferenceable(344) %37, ptr noundef nonnull align 8 dereferenceable(272) %3)
  %38 = load ptr, ptr %1, align 8
  %39 = getelementptr i8, ptr %38, i64 -24
  %40 = load i64, ptr %39, align 8
  %41 = getelementptr inbounds i8, ptr %1, i64 %40
  %42 = load ptr, ptr %0, align 8
  %43 = getelementptr i8, ptr %42, i64 -48
  %44 = load i64, ptr %43, align 8
  %45 = getelementptr inbounds i8, ptr %0, i64 %44
  %46 = getelementptr inbounds i8, ptr %0, i64 160
  %47 = load i32, ptr %46, align 8
  call void @_ZN3nix10ServeProto9SerialiseINS0_12BuildOptionsEE5writeERKNS_14StoreDirConfigENS0_9WriteConnERKS2_(ptr noundef nonnull align 8 dereferenceable(344) %41, ptr nonnull %45, i32 %47, ptr noundef nonnull align 8 dereferenceable(34) %4)
  call void @_ZN3nix12BufferedSink5flushEv(ptr noundef nonnull align 8 dereferenceable(32) %0)
  ret void

48:                                               ; preds = %5
  %49 = landingpad { ptr, i32 }
          cleanup
  call void @_ZNSt7__cxx1112basic_stringIcSt11char_traitsIcESaIcEED2Ev(ptr noundef nonnull align 8 dereferenceable(32) %7) #21
  resume { ptr, i32 } %49
}